target datalayout = "e-m:e-p270:32:32-p271:32:32-p272:64:64-i64:64-i128:128-f80:128-n8:16:32:64-S128"
target triple = "x86_64-pc-linux-gnu"

%struct.SDL_AtomicInt = type { i32 }
%struct.SDL_AudioSpec = type { i32, i32, i32 }
%struct.SDL_AudioDevice = type { ptr, ptr, %struct.SDL_AtomicInt, ptr, ptr, ptr, ptr, ptr, ptr, ptr, i32, ptr, %struct.SDL_AudioSpec, i32, ptr, %struct.SDL_AudioSpec, i32, i32, %struct.SDL_AtomicInt, %struct.SDL_AtomicInt, i8, i8, ptr, ptr, ptr, i32, ptr, i8, ptr, ptr }
%struct.SDL_LogicalAudioDevice = type { i32, ptr, %struct.SDL_AtomicInt, float, ptr, i8, i8, ptr, ptr, ptr, ptr, ptr, ptr, ptr }

; Function Attrs: nounwind uwtable
define hidden zeroext i1 @SDL_SetAudioPostmixCallback_REAL(i32 noundef %0, ptr noundef %1, ptr noundef %2) #0 {
  %4 = alloca i32, align 4
  %5 = alloca ptr, align 8
  %6 = alloca ptr, align 8
  %7 = alloca ptr, align 8
  %8 = alloca ptr, align 8
  %9 = alloca i8, align 1
  store i32 %0, ptr %4, align 4
  store ptr %1, ptr %5, align 8
  store ptr %2, ptr %6, align 8
  call void @llvm.lifetime.start.p0(i64 8, ptr %7) #6
  store ptr null, ptr %7, align 8
  call void @llvm.lifetime.start.p0(i64 8, ptr %8) #6
  %10 = load i32, ptr %4, align 4
  %11 = call ptr @ObtainLogicalAudioDevice(i32 noundef %10, ptr noundef %7)
  store ptr %11, ptr %8, align 8
  call void @llvm.lifetime.start.p0(i64 1, ptr %9) #6
  store i8 0, ptr %9, align 1
  %12 = load ptr, ptr %8, align 8
  %13 = icmp ne ptr %12, null
  br i1 %13, label %14, label %49

14:                                               ; preds = %3
  store i8 1, ptr %9, align 1
  %15 = load ptr, ptr %5, align 8
  %16 = icmp ne ptr %15, null
  br i1 %16, label %17, label %37

17:                                               ; preds = %14
  %18 = load ptr, ptr %7, align 8
  %19 = getelementptr inbounds nuw %struct.SDL_AudioDevice, ptr %18, i32 0, i32 24
  %20 = load ptr, ptr %19, align 8
  %21 = icmp ne ptr %20, null
  br i1 %21, label %37, label %22

22:                                               ; preds = %17
  %23 = call i64 @SDL_GetSIMDAlignment_REAL()
  %24 = load ptr, ptr %7, align 8
  %25 = getelementptr inbounds nuw %struct.SDL_AudioDevice, ptr %24, i32 0, i32 25
  %26 = load i32, ptr %25, align 8
  %27 = sext i32 %26 to i64
  %28 = call noalias ptr @SDL_aligned_alloc_REAL(i64 noundef %23, i64 noundef %27)
  %29 = load ptr, ptr %7, align 8
  %30 = getelementptr inbounds nuw %struct.SDL_AudioDevice, ptr %29, i32 0, i32 24
  store ptr %28, ptr %30, align 8
  %31 = load ptr, ptr %7, align 8
  %32 = getelementptr inbounds nuw %struct.SDL_AudioDevice, ptr %31, i32 0, i32 24
  %33 = load ptr, ptr %32, align 8
  %34 = icmp ne ptr %33, null
  br i1 %34, label %36, label %35

35:                                               ; preds = %22
  store i8 0, ptr %9, align 1
  br label %36

36:                                               ; preds = %35, %22
  br label %37

37:                                               ; preds = %36, %17, %14
  %38 = load i8, ptr %9, align 1, !range !5, !noundef !6
  %39 = trunc i8 %38 to i1
  br i1 %39, label %40, label %47

40:                                               ; preds = %37
  %41 = load ptr, ptr %5, align 8
  %42 = load ptr, ptr %8, align 8
  %43 = getelementptr inbounds nuw %struct.SDL_LogicalAudioDevice, ptr %42, i32 0, i32 10
  store ptr %41, ptr %43, align 8
  %44 = load ptr, ptr %6, align 8
  %45 = load ptr, ptr %8, align 8
  %46 = getelementptr inbounds nuw %struct.SDL_LogicalAudioDevice, ptr %45, i32 0, i32 11
  store ptr %44, ptr %46, align 8
  br label %47

47:                                               ; preds = %40, %37
  %48 = load ptr, ptr %7, align 8
  call void @UpdateAudioStreamFormatsPhysical(ptr noundef %48)
  br label %49

49:                                               ; preds = %47, %3
  %50 = load ptr, ptr %7, align 8
  call void @ReleaseAudioDevice(ptr noundef %50)
  %51 = load i8, ptr %9, align 1, !range !5, !noundef !6
  %52 = trunc i8 %51 to i1
  call void @llvm.lifetime.end.p0(i64 1, ptr %9) #6
  call void @llvm.lifetime.end.p0(i64 8, ptr %8) #6
  call void @llvm.lifetime.end.p0(i64 8, ptr %7) #6
  ret i1 %52
}