; Function Attrs: nounwind uwtable
define hidden noundef zeroext i1 @SDL_SetAudioPostmixCallback_REAL(i32 noundef %0, ptr noundef %1, ptr noundef %2) local_unnamed_addr #0 {
  %4 = alloca ptr, align 8
  call void @llvm.lifetime.start.p0(i64 8, ptr nonnull %4) #14
  store ptr null, ptr %4, align 8
  %5 = call fastcc ptr @ObtainLogicalAudioDevice(i32 noundef %0, ptr noundef %4)
  %.not = icmp eq ptr %5, null
  br i1 %.not, label %._crit_edge, label %6

._crit_edge:                                      ; preds = %3
  %.pre15 = load ptr, ptr %4, align 8
  br label %19

6:                                                ; preds = %3
  %.not9 = icmp eq ptr %1, null
  %.pre.pre = load ptr, ptr %4, align 8
  br i1 %.not9, label %.thread, label %7

7:                                                ; preds = %6
  %8 = getelementptr inbounds nuw i8, ptr %.pre.pre, i64 168
  %9 = load ptr, ptr %8, align 8
  %.not10 = icmp eq ptr %9, null
  br i1 %.not10, label %10, label %.thread

10:                                               ; preds = %7
  %11 = tail call i64 @SDL_GetSIMDAlignment_REAL() #14
  %12 = getelementptr inbounds nuw i8, ptr %.pre.pre, i64 176
  %13 = load i32, ptr %12, align 8
  %14 = sext i32 %13 to i64
  %15 = tail call noalias ptr @SDL_aligned_alloc_REAL(i64 noundef %11, i64 noundef %14) #14
  store ptr %15, ptr %8, align 8
  %.not11.not = icmp eq ptr %15, null
  br i1 %.not11.not, label %18, label %.thread

.thread:                                          ; preds = %6, %7, %10
  %16 = getelementptr inbounds nuw i8, ptr %5, i64 64
  store ptr %1, ptr %16, align 8
  %17 = getelementptr inbounds nuw i8, ptr %5, i64 72
  store ptr %2, ptr %17, align 8
  br label %18

18:                                               ; preds = %.thread, %10
  %.113 = phi i1 [ true, %.thread ], [ false, %10 ]
  tail call fastcc void @UpdateAudioStreamFormatsPhysical(ptr noundef %.pre.pre)
  br label %19

19:                                               ; preds = %._crit_edge, %18
  %20 = phi ptr [ %.pre.pre, %18 ], [ %.pre15, %._crit_edge ]
  %.0 = phi i1 [ %.113, %18 ], [ false, %._crit_edge ]
  tail call fastcc void @ReleaseAudioDevice(ptr noundef %20)
  call void @llvm.lifetime.end.p0(i64 8, ptr nonnull %4) #14
  ret i1 %.0
}